; ModuleID = '52/4657.c'
source_filename = "52/4657.c"
target datalayout = "e-m:e-p270:32:32-p271:32:32-p272:64:64-i64:64-f80:128-n8:16:32:64-S128"
target triple = "x86_64-pc-linux-gnu"

@.str = private unnamed_addr constant [6 x i8] c"%d %d\00", align 1
@.str.1 = private unnamed_addr constant [3 x i8] c"%d\00", align 1
@.str.2 = private unnamed_addr constant [4 x i8] c"%d \00", align 1

; Function Attrs: noinline nounwind uwtable
define dso_local i32 @main() #0 {
  %1 = alloca i32, align 4
  %2 = alloca i32, align 4
  %3 = alloca i32, align 4
  %4 = alloca i32, align 4
  %5 = alloca i32, align 4
  %6 = alloca i32, align 4
  %7 = alloca [100 x i32], align 16
  %8 = alloca [100 x i32], align 16
  store i32 0, i32* %1, align 4
  store i32 0, i32* %6, align 4
  %9 = call i32 (i8*, ...) @__isoc99_scanf(i8* getelementptr inbounds ([6 x i8], [6 x i8]* @.str, i64 0, i64 0), i32* %2, i32* %3)
  store i32 0, i32* %4, align 4
  br label %10

10:                                               ; preds = %19, %0
  %11 = load i32, i32* %4, align 4
  %12 = load i32, i32* %2, align 4
  %13 = icmp slt i32 %11, %12
  br i1 %13, label %14, label %22

14:                                               ; preds = %10
  %15 = load i32, i32* %4, align 4
  %16 = sext i32 %15 to i64
  %17 = getelementptr inbounds [100 x i32], [100 x i32]* %7, i64 0, i64 %16
  %18 = call i32 (i8*, ...) @__isoc99_scanf(i8* getelementptr inbounds ([3 x i8], [3 x i8]* @.str.1, i64 0, i64 0), i32* %17)
  br label %19

19:                                               ; preds = %14
  %20 = load i32, i32* %4, align 4
  %21 = add nsw i32 %20, 1
  store i32 %21, i32* %4, align 4
  br label %10

22:                                               ; preds = %10
  store i32 0, i32* %4, align 4
  br label %23

23:                                               ; preds = %60, %22
  %24 = load i32, i32* %4, align 4
  %25 = load i32, i32* %2, align 4
  %26 = icmp slt i32 %24, %25
  br i1 %26, label %27, label %63

27:                                               ; preds = %23
  %28 = load i32, i32* %4, align 4
  %29 = load i32, i32* %3, align 4
  %30 = add nsw i32 %28, %29
  %31 = load i32, i32* %2, align 4
  %32 = icmp slt i32 %30, %31
  br i1 %32, label %33, label %43

33:                                               ; preds = %27
  %34 = load i32, i32* %4, align 4
  %35 = sext i32 %34 to i64
  %36 = getelementptr inbounds [100 x i32], [100 x i32]* %7, i64 0, i64 %35
  %37 = load i32, i32* %36, align 4
  %38 = load i32, i32* %4, align 4
  %39 = load i32, i32* %3, align 4
  %40 = add nsw i32 %38, %39
  %41 = sext i32 %40 to i64
  %42 = getelementptr inbounds [100 x i32], [100 x i32]* %8, i64 0, i64 %41
  store i32 %37, i32* %42, align 4
  br label %43

43:                                               ; preds = %33, %27
  %44 = load i32, i32* %4, align 4
  %45 = load i32, i32* %3, align 4
  %46 = add nsw i32 %44, %45
  %47 = load i32, i32* %2, align 4
  %48 = icmp sge i32 %46, %47
  br i1 %48, label %49, label %59

49:                                               ; preds = %43
  %50 = load i32, i32* %4, align 4
  %51 = sext i32 %50 to i64
  %52 = getelementptr inbounds [100 x i32], [100 x i32]* %7, i64 0, i64 %51
  %53 = load i32, i32* %52, align 4
  %54 = load i32, i32* %6, align 4
  %55 = sext i32 %54 to i64
  %56 = getelementptr inbounds [100 x i32], [100 x i32]* %8, i64 0, i64 %55
  store i32 %53, i32* %56, align 4
  %57 = load i32, i32* %6, align 4
  %58 = add nsw i32 %57, 1
  store i32 %58, i32* %6, align 4
  br label %59

59:                                               ; preds = %49, %43
  br label %60

60:                                               ; preds = %59
  %61 = load i32, i32* %4, align 4
  %62 = add nsw i32 %61, 1
  store i32 %62, i32* %4, align 4
  br label %23

63:                                               ; preds = %23
  store i32 0, i32* %5, align 4
  br label %64

64:                                               ; preds = %75, %63
  %65 = load i32, i32* %5, align 4
  %66 = load i32, i32* %2, align 4
  %67 = sub nsw i32 %66, 1
  %68 = icmp slt i32 %65, %67
  br i1 %68, label %69, label %78

69:                                               ; preds = %64
  %70 = load i32, i32* %5, align 4
  %71 = sext i32 %70 to i64
  %72 = getelementptr inbounds [100 x i32], [100 x i32]* %8, i64 0, i64 %71
  %73 = load i32, i32* %72, align 4
  %74 = call i32 (i8*, ...) @printf(i8* getelementptr inbounds ([4 x i8], [4 x i8]* @.str.2, i64 0, i64 0), i32 %73)
  br label %75

75:                                               ; preds = %69
  %76 = load i32, i32* %5, align 4
  %77 = add nsw i32 %76, 1
  store i32 %77, i32* %5, align 4
  br label %64

78:                                               ; preds = %64
  %79 = load i32, i32* %2, align 4
  %80 = sub nsw i32 %79, 1
  %81 = sext i32 %80 to i64
  %82 = getelementptr inbounds [100 x i32], [100 x i32]* %8, i64 0, i64 %81
  %83 = load i32, i32* %82, align 4
  %84 = call i32 (i8*, ...) @printf(i8* getelementptr inbounds ([3 x i8], [3 x i8]* @.str.1, i64 0, i64 0), i32 %83)
  ret i32 0
}

declare dso_local i32 @__isoc99_scanf(i8*, ...) #1

declare dso_local i32 @printf(i8*, ...) #1


!llvm.module.flags = !{!0}
!llvm.ident = !{!1}

!0 = !{i32 1, !"wchar_size", i32 4}
!1 = !{!"clang version 10.0.0-4ubuntu1 "}
